target datalayout = "e-m:e-p270:32:32-p271:32:32-p272:64:64-i64:64-i128:128-f80:128-n8:16:32:64-S128"
target triple = "x86_64-pc-linux-gnu"

; Function Attrs: mustprogress nounwind uwtable
define internal noundef double @_ZN3gmxL7invsqrtEd(double noundef %0) #3 {
  %2 = alloca double, align 8
  store double %0, ptr %2, align 8
  %3 = load double, ptr %2, align 8
  %4 = call double @sqrt(double noundef %3) #4
  %5 = fdiv double 1.000000e+00, %4
  ret double %5
}

; Function Attrs: mustprogress nounwind uwtable
define internal void @_ZL8rvec_subPKfS0_Pf(ptr noundef %0, ptr noundef %1, ptr noundef %2) #3 {
  %4 = alloca ptr, align 8
  %5 = alloca ptr, align 8
  %6 = alloca ptr, align 8
  %7 = alloca float, align 4
  %8 = alloca float, align 4
  %9 = alloca float, align 4
  store ptr %0, ptr %4, align 8
  store ptr %1, ptr %5, align 8
  store ptr %2, ptr %6, align 8
  %10 = load ptr, ptr %4, align 8
  %11 = getelementptr inbounds float, ptr %10, i64 0
  %12 = load float, ptr %11, align 4
  %13 = load ptr, ptr %5, align 8
  %14 = getelementptr inbounds float, ptr %13, i64 0
  %15 = load float, ptr %14, align 4
  %16 = fsub float %12, %15
  store float %16, ptr %7, align 4
  %17 = load ptr, ptr %4, align 8
  %18 = getelementptr inbounds float, ptr %17, i64 1
  %19 = load float, ptr %18, align 4
  %20 = load ptr, ptr %5, align 8
  %21 = getelementptr inbounds float, ptr %20, i64 1
  %22 = load float, ptr %21, align 4
  %23 = fsub float %19, %22
  store float %23, ptr %8, align 4
  %24 = load ptr, ptr %4, align 8
  %25 = getelementptr inbounds float, ptr %24, i64 2
  %26 = load float, ptr %25, align 4
  %27 = load ptr, ptr %5, align 8
  %28 = getelementptr inbounds float, ptr %27, i64 2
  %29 = load float, ptr %28, align 4
  %30 = fsub float %26, %29
  store float %30, ptr %9, align 4
  %31 = load float, ptr %7, align 4
  %32 = load ptr, ptr %6, align 8
  %33 = getelementptr inbounds float, ptr %32, i64 0
  store float %31, ptr %33, align 4
  %34 = load float, ptr %8, align 4
  %35 = load ptr, ptr %6, align 8
  %36 = getelementptr inbounds float, ptr %35, i64 1
  store float %34, ptr %36, align 4
  %37 = load float, ptr %9, align 4
  %38 = load ptr, ptr %6, align 8
  %39 = getelementptr inbounds float, ptr %38, i64 2
  store float %37, ptr %39, align 4
  ret void
}

; Function Attrs: mustprogress uwtable
define internal noundef float @_ZL9cos_anglePKfS0_(ptr noundef %0, ptr noundef %1) #2 {
  %3 = alloca float, align 4
  %4 = alloca ptr, align 8
  %5 = alloca ptr, align 8
  %6 = alloca float, align 4
  %7 = alloca i32, align 4
  %8 = alloca double, align 8
  %9 = alloca double, align 8
  %10 = alloca double, align 8
  %11 = alloca double, align 8
  %12 = alloca double, align 8
  %13 = alloca double, align 8
  store ptr %0, ptr %4, align 8
  store ptr %1, ptr %5, align 8
  store double 0.000000e+00, ptr %12, align 8
  store double 0.000000e+00, ptr %11, align 8
  store double 0.000000e+00, ptr %10, align 8
  store i32 0, ptr %7, align 4
  br label %14

14:                                               ; preds = %42, %2
  %15 = load i32, ptr %7, align 4
  %16 = icmp slt i32 %15, 3
  br i1 %16, label %17, label %45

17:                                               ; preds = %14
  %18 = load ptr, ptr %4, align 8
  %19 = load i32, ptr %7, align 4
  %20 = sext i32 %19 to i64
  %21 = getelementptr inbounds float, ptr %18, i64 %20
  %22 = load float, ptr %21, align 4
  %23 = fpext float %22 to double
  store double %23, ptr %8, align 8
  %24 = load ptr, ptr %5, align 8
  %25 = load i32, ptr %7, align 4
  %26 = sext i32 %25 to i64
  %27 = getelementptr inbounds float, ptr %24, i64 %26
  %28 = load float, ptr %27, align 4
  %29 = fpext float %28 to double
  store double %29, ptr %9, align 8
  %30 = load double, ptr %8, align 8
  %31 = load double, ptr %9, align 8
  %32 = load double, ptr %10, align 8
  %33 = call double @llvm.fmuladd.f64(double %30, double %31, double %32)
  store double %33, ptr %10, align 8
  %34 = load double, ptr %8, align 8
  %35 = load double, ptr %8, align 8
  %36 = load double, ptr %11, align 8
  %37 = call double @llvm.fmuladd.f64(double %34, double %35, double %36)
  store double %37, ptr %11, align 8
  %38 = load double, ptr %9, align 8
  %39 = load double, ptr %9, align 8
  %40 = load double, ptr %12, align 8
  %41 = call double @llvm.fmuladd.f64(double %38, double %39, double %40)
  store double %41, ptr %12, align 8
  br label %42

42:                                               ; preds = %17
  %43 = load i32, ptr %7, align 4
  %44 = add nsw i32 %43, 1
  store i32 %44, ptr %7, align 4
  br label %14, !llvm.loop !5

45:                                               ; preds = %14
  %46 = load double, ptr %11, align 8
  %47 = load double, ptr %12, align 8
  %48 = fmul double %46, %47
  store double %48, ptr %13, align 8
  %49 = load double, ptr %13, align 8
  %50 = fcmp ogt double %49, 0.000000e+00
  br i1 %50, label %51, label %57

51:                                               ; preds = %45
  %52 = load double, ptr %10, align 8
  %53 = load double, ptr %13, align 8
  %54 = call noundef double @_ZN3gmxL7invsqrtEd(double noundef %53)
  %55 = fmul double %52, %54
  %56 = fptrunc double %55 to float
  store float %56, ptr %6, align 4
  br label %58

57:                                               ; preds = %45
  store float 1.000000e+00, ptr %6, align 4
  br label %58

58:                                               ; preds = %57, %51
  %59 = load float, ptr %6, align 4
  %60 = fpext float %59 to double
  %61 = fcmp ogt double %60, 1.000000e+00
  br i1 %61, label %62, label %63

62:                                               ; preds = %58
  store float 1.000000e+00, ptr %3, align 4
  br label %70

63:                                               ; preds = %58
  %64 = load float, ptr %6, align 4
  %65 = fpext float %64 to double
  %66 = fcmp olt double %65, -1.000000e+00
  br i1 %66, label %67, label %68

67:                                               ; preds = %63
  store float -1.000000e+00, ptr %3, align 4
  br label %70

68:                                               ; preds = %63
  %69 = load float, ptr %6, align 4
  store float %69, ptr %3, align 4
  br label %70

70:                                               ; preds = %68, %67, %62
  %71 = load float, ptr %3, align 4
  ret float %71
}

; Function Attrs: mustprogress uwtable
define internal noundef i32 @_ZN12_GLOBAL__N_112pbc_rvec_subEPK5t_pbcPKfS4_Pf(ptr noundef %0, ptr noundef %1, ptr noundef %2, ptr noundef %3) #2 {
  %5 = alloca i32, align 4
  %6 = alloca ptr, align 8
  %7 = alloca ptr, align 8
  %8 = alloca ptr, align 8
  %9 = alloca ptr, align 8
  store ptr %0, ptr %6, align 8
  store ptr %1, ptr %7, align 8
  store ptr %2, ptr %8, align 8
  store ptr %3, ptr %9, align 8
  %10 = load ptr, ptr %6, align 8
  %11 = icmp ne ptr %10, null
  br i1 %11, label %12, label %18

12:                                               ; preds = %4
  %13 = load ptr, ptr %6, align 8
  %14 = load ptr, ptr %7, align 8
  %15 = load ptr, ptr %8, align 8
  %16 = load ptr, ptr %9, align 8
  %17 = call noundef i32 @_Z11pbc_dx_aiucPK5t_pbcPKfS3_Pf(ptr noundef %13, ptr noundef %14, ptr noundef %15, ptr noundef %16)
  store i32 %17, ptr %5, align 4
  br label %22

18:                                               ; preds = %4
  %19 = load ptr, ptr %7, align 8
  %20 = load ptr, ptr %8, align 8
  %21 = load ptr, ptr %9, align 8
  call void @_ZL8rvec_subPKfS0_Pf(ptr noundef %19, ptr noundef %20, ptr noundef %21)
  store i32 22, ptr %5, align 4
  br label %22

22:                                               ; preds = %18, %12
  %23 = load i32, ptr %5, align 4
  ret i32 %23
}

; Function Attrs: mustprogress uwtable
define internal noundef float @_ZN12_GLOBAL__N_113g96bond_angleEPKfS1_S1_PK5t_pbcPfS5_PiS6_(ptr noundef %0, ptr noundef %1, ptr noundef %2, ptr noundef %3, ptr noundef %4, ptr noundef %5, ptr noundef %6, ptr noundef %7) #2 {
  %9 = alloca ptr, align 8
  %10 = alloca ptr, align 8
  %11 = alloca ptr, align 8
  %12 = alloca ptr, align 8
  %13 = alloca ptr, align 8
  %14 = alloca ptr, align 8
  %15 = alloca ptr, align 8
  %16 = alloca ptr, align 8
  %17 = alloca float, align 4
  store ptr %0, ptr %9, align 8
  store ptr %1, ptr %10, align 8
  store ptr %2, ptr %11, align 8
  store ptr %3, ptr %12, align 8
  store ptr %4, ptr %13, align 8
  store ptr %5, ptr %14, align 8
  store ptr %6, ptr %15, align 8
  store ptr %7, ptr %16, align 8
  %18 = load ptr, ptr %12, align 8
  %19 = load ptr, ptr %9, align 8
  %20 = load ptr, ptr %10, align 8
  %21 = load ptr, ptr %13, align 8
  %22 = call noundef i32 @_ZN12_GLOBAL__N_112pbc_rvec_subEPK5t_pbcPKfS4_Pf(ptr noundef %18, ptr noundef %19, ptr noundef %20, ptr noundef %21)
  %23 = load ptr, ptr %15, align 8
  store i32 %22, ptr %23, align 4
  %24 = load ptr, ptr %12, align 8
  %25 = load ptr, ptr %11, align 8
  %26 = load ptr, ptr %10, align 8
  %27 = load ptr, ptr %14, align 8
  %28 = call noundef i32 @_ZN12_GLOBAL__N_112pbc_rvec_subEPK5t_pbcPKfS4_Pf(ptr noundef %24, ptr noundef %25, ptr noundef %26, ptr noundef %27)
  %29 = load ptr, ptr %16, align 8
  store i32 %28, ptr %29, align 4
  %30 = load ptr, ptr %13, align 8
  %31 = load ptr, ptr %14, align 8
  %32 = call noundef float @_ZL9cos_anglePKfS0_(ptr noundef %30, ptr noundef %31)
  store float %32, ptr %17, align 4
  %33 = load float, ptr %17, align 4
  ret float %33
}