; Function Attrs: mustprogress uwtable
define internal fastcc noundef float @_ZN12_GLOBAL__N_113g96bond_angleEPKfS1_S1_PK5t_pbcPfS5_PiS6_(ptr noundef %0, ptr noundef %1, ptr noundef %2, ptr noundef %3, ptr noundef %4, ptr noundef %5, ptr nocapture noundef writeonly %6, ptr nocapture noundef writeonly %7) unnamed_addr #4 {
  %.not.i = icmp eq ptr %3, null
  br i1 %.not.i, label %12, label %9

9:                                                ; preds = %8
  %10 = tail call noundef i32 @_Z11pbc_dx_aiucPK5t_pbcPKfS3_Pf(ptr noundef nonnull %3, ptr noundef %0, ptr noundef %1, ptr noundef %4)
  store i32 %10, ptr %6, align 4
  %11 = tail call noundef i32 @_Z11pbc_dx_aiucPK5t_pbcPKfS3_Pf(ptr noundef nonnull %3, ptr noundef %2, ptr noundef %1, ptr noundef %5)
  br label %_ZN12_GLOBAL__N_112pbc_rvec_subEPK5t_pbcPKfS4_Pf.exit15

12:                                               ; preds = %8
  %13 = getelementptr inbounds i8, ptr %0, i64 8
  %14 = load float, ptr %13, align 4
  %15 = getelementptr inbounds i8, ptr %1, i64 8
  %16 = load float, ptr %15, align 4
  %17 = fsub float %14, %16
  %18 = load <2 x float>, ptr %0, align 4
  %19 = load <2 x float>, ptr %1, align 4
  %20 = fsub <2 x float> %18, %19
  store <2 x float> %20, ptr %4, align 4
  %21 = getelementptr inbounds i8, ptr %4, i64 8
  store float %17, ptr %21, align 4
  store i32 22, ptr %6, align 4
  %22 = getelementptr inbounds i8, ptr %2, i64 8
  %23 = load float, ptr %22, align 4
  %24 = load float, ptr %15, align 4
  %25 = fsub float %23, %24
  %26 = load <2 x float>, ptr %2, align 4
  %27 = load <2 x float>, ptr %1, align 4
  %28 = fsub <2 x float> %26, %27
  store <2 x float> %28, ptr %5, align 4
  %29 = getelementptr inbounds i8, ptr %5, i64 8
  store float %25, ptr %29, align 4
  br label %_ZN12_GLOBAL__N_112pbc_rvec_subEPK5t_pbcPKfS4_Pf.exit15

_ZN12_GLOBAL__N_112pbc_rvec_subEPK5t_pbcPKfS4_Pf.exit15: ; preds = %9, %12
  %.0.i14 = phi i32 [ %11, %9 ], [ 22, %12 ]
  store i32 %.0.i14, ptr %7, align 4
  br label %30

30:                                               ; preds = %30, %_ZN12_GLOBAL__N_112pbc_rvec_subEPK5t_pbcPKfS4_Pf.exit15
  %indvars.iv.i = phi i64 [ 0, %_ZN12_GLOBAL__N_112pbc_rvec_subEPK5t_pbcPKfS4_Pf.exit15 ], [ %indvars.iv.next.i, %30 ]
  %.02333.i = phi double [ 0.000000e+00, %_ZN12_GLOBAL__N_112pbc_rvec_subEPK5t_pbcPKfS4_Pf.exit15 ], [ %39, %30 ]
  %.02432.i = phi double [ 0.000000e+00, %_ZN12_GLOBAL__N_112pbc_rvec_subEPK5t_pbcPKfS4_Pf.exit15 ], [ %38, %30 ]
  %.02531.i = phi double [ 0.000000e+00, %_ZN12_GLOBAL__N_112pbc_rvec_subEPK5t_pbcPKfS4_Pf.exit15 ], [ %37, %30 ]
  %31 = getelementptr inbounds float, ptr %4, i64 %indvars.iv.i
  %32 = load float, ptr %31, align 4
  %33 = fpext float %32 to double
  %34 = getelementptr inbounds float, ptr %5, i64 %indvars.iv.i
  %35 = load float, ptr %34, align 4
  %36 = fpext float %35 to double
  %37 = tail call double @llvm.fmuladd.f64(double %33, double %36, double %.02531.i)
  %38 = tail call double @llvm.fmuladd.f64(double %33, double %33, double %.02432.i)
  %39 = tail call double @llvm.fmuladd.f64(double %36, double %36, double %.02333.i)
  %indvars.iv.next.i = add nuw nsw i64 %indvars.iv.i, 1
  %exitcond.not.i = icmp eq i64 %indvars.iv.next.i, 3
  br i1 %exitcond.not.i, label %40, label %30, !llvm.loop !5

40:                                               ; preds = %30
  %41 = fmul double %38, %39
  %42 = fcmp ogt double %41, 0.000000e+00
  br i1 %42, label %43, label %_ZL9cos_anglePKfS0_.exit

43:                                               ; preds = %40
  %44 = tail call double @sqrt(double noundef %41) #22
  %45 = fdiv double 1.000000e+00, %44
  %46 = fmul double %37, %45
  %47 = fptrunc double %46 to float
  br label %_ZL9cos_anglePKfS0_.exit

_ZL9cos_anglePKfS0_.exit:                         ; preds = %40, %43
  %.026.i = phi float [ %47, %43 ], [ 1.000000e+00, %40 ]
  %48 = fcmp ogt float %.026.i, 1.000000e+00
  %49 = fcmp olt float %.026.i, -1.000000e+00
  %..026.i = select i1 %49, float -1.000000e+00, float %.026.i
  %.0.i16 = select i1 %48, float 1.000000e+00, float %..026.i
  ret float %.0.i16
}